	.section	__TEXT,__text,regular,pure_instructions
	.build_version macos, 11, 0
	.p2align	2
__ZN3std10sys_common9backtrace28__rust_begin_short_backtrace17ha3a1bfe96d2f6c1cE:
Lfunc_begin0:
	.file	1 "/rustc/07dca489ac2d933c78d3c5158e3f43beefeb02ce/library/std/src/sys_common" "backtrace.rs"
	.loc	1 151 0
	.cfi_startproc
	sub	sp, sp, #32
	.cfi_def_cfa_offset 32
	stp	x29, x30, [sp, #16]
	add	x29, sp, #16
	.cfi_def_cfa w29, 16
	.cfi_offset w30, -8
	.cfi_offset w29, -16
Ltmp0:
	.file	2 "/rustc/07dca489ac2d933c78d3c5158e3f43beefeb02ce/library/core/src" "hint.rs"
	.loc	2 285 27 prologue_end
	mov	x8, x0
	str	x8, [sp, #8]
Ltmp1:
	.loc	1 155 18
	bl	__ZN4core3ops8function6FnOnce9call_once17h4b3a57ab9e808ce5E
Ltmp2:
	.loc	2 286 5
	; InlineAsm Start
	; InlineAsm End
Ltmp3:
	.cfi_def_cfa wsp, 32
	.loc	1 161 2 epilogue_begin
	ldp	x29, x30, [sp, #16]
	add	sp, sp, #32
	.cfi_def_cfa_offset 0
	.cfi_restore w30
	.cfi_restore w29
	ret
Ltmp4:
Lfunc_end0:
	.cfi_endproc

	.private_extern	__ZN3std2rt10lang_start17hf8e96f63ff786642E
	.globl	__ZN3std2rt10lang_start17hf8e96f63ff786642E
	.p2align	2
__ZN3std2rt10lang_start17hf8e96f63ff786642E:
Lfunc_begin1:
	.file	3 "/rustc/07dca489ac2d933c78d3c5158e3f43beefeb02ce/library/std/src" "rt.rs"
	.loc	3 159 0
	.cfi_startproc
	sub	sp, sp, #96
	.cfi_def_cfa_offset 96
	stp	x29, x30, [sp, #80]
	add	x29, sp, #80
	.cfi_def_cfa w29, 16
	.cfi_offset w30, -8
	.cfi_offset w29, -16
	mov	x8, x0
	str	x1, [sp, #8]
	mov	x0, x2
	ldr	x2, [sp, #8]
	str	x0, [sp, #16]
	mov	x4, x3
	ldr	x3, [sp, #16]
	mov	x0, x8
	str	x0, [sp, #40]
	stur	x2, [x29, #-32]
	mov	x9, x3
	stur	x9, [x29, #-24]
	sturb	w4, [x29, #-9]
	add	x0, sp, #32
Ltmp5:
	.loc	3 166 10 prologue_end
	str	x8, [sp, #32]
	.loc	3 165 17
	adrp	x1, l___unnamed_1@PAGE
	add	x1, x1, l___unnamed_1@PAGEOFF
	bl	__ZN3std2rt19lang_start_internal17hf4f3eb1e51305b96E
	str	x0, [sp, #24]
	.loc	3 165 12 is_stmt 0
	ldr	x0, [sp, #24]
	stur	x0, [x29, #-8]
	.cfi_def_cfa wsp, 96
	.loc	3 172 2 epilogue_begin is_stmt 1
	ldp	x29, x30, [sp, #80]
	add	sp, sp, #96
	.cfi_def_cfa_offset 0
	.cfi_restore w30
	.cfi_restore w29
	ret
Ltmp6:
Lfunc_end1:
	.cfi_endproc

	.p2align	2
__ZN3std2rt10lang_start28_$u7b$$u7b$closure$u7d$$u7d$17h46345672ed369c42E:
Lfunc_begin2:
	.loc	3 166 0
	.cfi_startproc
	sub	sp, sp, #48
	.cfi_def_cfa_offset 48
	stp	x29, x30, [sp, #32]
	add	x29, sp, #32
	.cfi_def_cfa w29, 16
	.cfi_offset w30, -8
	.cfi_offset w29, -16
	mov	x8, x0
	str	x8, [sp, #16]
Ltmp7:
	.loc	3 166 77 prologue_end
	ldr	x0, [x0]
	.loc	3 166 18 is_stmt 0
	bl	__ZN3std10sys_common9backtrace28__rust_begin_short_backtrace17ha3a1bfe96d2f6c1cE
	bl	__ZN54_$LT$$LP$$RP$$u20$as$u20$std..process..Termination$GT$6report17hfcdc01c3d1a6550eE
	add	x8, sp, #15
	strb	w0, [sp, #15]
Ltmp8:
	.file	4 "/rustc/07dca489ac2d933c78d3c5158e3f43beefeb02ce/library/std/src" "process.rs"
	.loc	4 1959 9 is_stmt 1
	stur	x8, [x29, #-8]
Ltmp9:
	.file	5 "/rustc/07dca489ac2d933c78d3c5158e3f43beefeb02ce/library/std/src/sys/unix/process" "process_common.rs"
	.loc	5 639 9
	ldrb	w0, [sp, #15]
Ltmp10:
	.cfi_def_cfa wsp, 48
	.loc	3 166 100 epilogue_begin
	ldp	x29, x30, [sp, #32]
	add	sp, sp, #48
	.cfi_def_cfa_offset 0
	.cfi_restore w30
	.cfi_restore w29
	ret
Ltmp11:
Lfunc_end2:
	.cfi_endproc

	.p2align	2
__ZN4core3fmt9Arguments6new_v117hb52eeb323a84f314E:
Lfunc_begin3:
	.file	6 "/rustc/07dca489ac2d933c78d3c5158e3f43beefeb02ce/library/core/src/fmt" "mod.rs"
	.loc	6 331 0
	.cfi_startproc
	sub	sp, sp, #192
	.cfi_def_cfa_offset 192
	stp	x29, x30, [sp, #176]
	add	x29, sp, #176
	.cfi_def_cfa w29, 16
	.cfi_offset w30, -8
	.cfi_offset w29, -16
	.cfi_remember_state
	str	x8, [sp, #8]
	str	x0, [sp, #16]
	str	x1, [sp, #24]
	str	x2, [sp, #32]
	str	x3, [sp, #40]
	stur	x0, [x29, #-48]
	stur	x1, [x29, #-40]
	stur	x2, [x29, #-32]
	stur	x3, [x29, #-24]
Ltmp12:
	.loc	6 332 12 prologue_end
	subs	x8, x1, x3
	cset	w8, lo
	tbnz	w8, #0, LBB3_2
	b	LBB3_1
LBB3_1:
	.loc	6 0 12 is_stmt 0
	ldr	x8, [sp, #24]
	ldr	x9, [sp, #40]
	.loc	6 332 56
	add	x9, x9, #1
	.loc	6 332 41
	subs	x8, x8, x9
	cset	w8, hi
	tbnz	w8, #0, LBB3_4
	b	LBB3_3
LBB3_2:
	.loc	6 332 71
	b	LBB3_4
LBB3_3:
	.loc	6 0 71
	ldr	x8, [sp, #40]
	ldr	x9, [sp, #8]
	ldr	x10, [sp, #32]
	ldr	x11, [sp, #24]
	ldr	x12, [sp, #16]
	.loc	6 335 34 is_stmt 1
	stur	xzr, [x29, #-80]
	.loc	6 335 9 is_stmt 0
	str	x12, [x9]
	str	x11, [x9, #8]
	ldur	x12, [x29, #-80]
	ldur	x11, [x29, #-72]
	str	x12, [x9, #32]
	str	x11, [x9, #40]
	str	x10, [x9, #16]
	str	x8, [x9, #24]
	.cfi_def_cfa wsp, 192
	.loc	6 336 6 epilogue_begin is_stmt 1
	ldp	x29, x30, [sp, #176]
	add	sp, sp, #192
	.cfi_def_cfa_offset 0
	.cfi_restore w30
	.cfi_restore w29
	ret
LBB3_4:
	.cfi_restore_state
	.loc	6 0 6 is_stmt 0
	adrp	x9, l___unnamed_2@PAGE
	add	x9, x9, l___unnamed_2@PAGEOFF
	.loc	6 333 20 is_stmt 1
	mov	x8, x9
	stur	x8, [x29, #-16]
	mov	w8, #1
	stur	x8, [x29, #-8]
Ltmp13:
	.loc	6 325 34
	stur	xzr, [x29, #-64]
	add	x0, sp, #48
	.loc	6 325 9 is_stmt 0
	str	x9, [sp, #48]
	str	x8, [sp, #56]
	ldur	x9, [x29, #-64]
	ldur	x8, [x29, #-56]
	str	x9, [sp, #80]
	str	x8, [sp, #88]
	adrp	x8, l___unnamed_3@PAGE
	add	x8, x8, l___unnamed_3@PAGEOFF
	str	x8, [sp, #64]
	str	xzr, [sp, #72]
Ltmp14:
	.loc	6 333 13 is_stmt 1
	adrp	x1, l___unnamed_4@PAGE
	add	x1, x1, l___unnamed_4@PAGEOFF
	bl	__ZN4core9panicking9panic_fmt17h33e40d2a93cab78fE
Ltmp15:
Lfunc_end3:
	.cfi_endproc
	.file	7 "/rustc/07dca489ac2d933c78d3c5158e3f43beefeb02ce/library/core/src" "panic.rs"

	.p2align	2
__ZN4core3ops8function6FnOnce40call_once$u7b$$u7b$vtable.shim$u7d$$u7d$17h243bf9de02b3ff40E:
Lfunc_begin4:
	.file	8 "/rustc/07dca489ac2d933c78d3c5158e3f43beefeb02ce/library/core/src/ops" "function.rs"
	.loc	8 250 0
	.cfi_startproc
	sub	sp, sp, #32
	.cfi_def_cfa_offset 32
	stp	x29, x30, [sp, #16]
	add	x29, sp, #16
	.cfi_def_cfa w29, 16
	.cfi_offset w30, -8
	.cfi_offset w29, -16
	mov	x8, x0
	str	x8, [sp, #8]
Ltmp16:
	.loc	8 250 5 prologue_end
	ldr	x0, [x0]
	bl	__ZN4core3ops8function6FnOnce9call_once17hb1d33eeac19d3aebE
	.cfi_def_cfa wsp, 32
	.loc	8 250 5 epilogue_begin is_stmt 0
	ldp	x29, x30, [sp, #16]
	add	sp, sp, #32
	.cfi_def_cfa_offset 0
	.cfi_restore w30
	.cfi_restore w29
	ret
Ltmp17:
Lfunc_end4:
	.cfi_endproc

	.p2align	2
__ZN4core3ops8function6FnOnce9call_once17h4b3a57ab9e808ce5E:
Lfunc_begin5:
	.loc	8 250 0 is_stmt 1
	.cfi_startproc
	sub	sp, sp, #32
	.cfi_def_cfa_offset 32
	stp	x29, x30, [sp, #16]
	add	x29, sp, #16
	.cfi_def_cfa w29, 16
	.cfi_offset w30, -8
	.cfi_offset w29, -16
	str	x0, [sp, #8]
Ltmp18:
	.loc	8 250 5 prologue_end
	blr	x0
	.cfi_def_cfa wsp, 32
	.loc	8 250 5 epilogue_begin is_stmt 0
	ldp	x29, x30, [sp, #16]
	add	sp, sp, #32
	.cfi_def_cfa_offset 0
	.cfi_restore w30
	.cfi_restore w29
	ret
Ltmp19:
Lfunc_end5:
	.cfi_endproc

	.p2align	2
__ZN4core3ops8function6FnOnce9call_once17hb1d33eeac19d3aebE:
Lfunc_begin6:
	.loc	8 250 0 is_stmt 1
	.cfi_startproc
	.cfi_personality 155, _rust_eh_personality
	.cfi_lsda 16, Lexception0
	sub	sp, sp, #64
	.cfi_def_cfa_offset 64
	stp	x29, x30, [sp, #48]
	add	x29, sp, #48
	.cfi_def_cfa w29, 16
	.cfi_offset w30, -8
	.cfi_offset w29, -16
	mov	x8, x0
	add	x0, sp, #16
	str	x8, [sp, #16]
Ltmp20:
Ltmp23:
	.loc	8 250 5 prologue_end
	bl	__ZN3std2rt10lang_start28_$u7b$$u7b$closure$u7d$$u7d$17h46345672ed369c42E
	str	w0, [sp, #12]
Ltmp21:
	b	LBB6_3
LBB6_1:
	ldur	x0, [x29, #-16]
	bl	__Unwind_Resume
LBB6_2:
Ltmp22:
	.loc	8 0 5 is_stmt 0
	stur	x0, [x29, #-16]
	mov	x8, x1
	stur	w8, [x29, #-8]
	b	LBB6_1
LBB6_3:
	ldr	w0, [sp, #12]
	.cfi_def_cfa wsp, 64
	.loc	8 250 5 epilogue_begin
	ldp	x29, x30, [sp, #48]
	add	sp, sp, #64
	.cfi_def_cfa_offset 0
	.cfi_restore w30
	.cfi_restore w29
	ret
Ltmp24:
Lfunc_end6:
	.cfi_endproc
	.section	__TEXT,__gcc_except_tab
	.p2align	2, 0x0
GCC_except_table6:
Lexception0:
	.byte	255
	.byte	255
	.byte	1
	.uleb128 Lcst_end0-Lcst_begin0
Lcst_begin0:
	.uleb128 Ltmp20-Lfunc_begin6
	.uleb128 Ltmp21-Ltmp20
	.uleb128 Ltmp22-Lfunc_begin6
	.byte	0
	.uleb128 Ltmp21-Lfunc_begin6
	.uleb128 Lfunc_end6-Ltmp21
	.byte	0
	.byte	0
Lcst_end0:
	.p2align	2, 0x0

	.section	__TEXT,__text,regular,pure_instructions
	.p2align	2
__ZN4core3ptr85drop_in_place$LT$std..rt..lang_start$LT$$LP$$RP$$GT$..$u7b$$u7b$closure$u7d$$u7d$$GT$17hee06bb4683773353E:
Lfunc_begin7:
	.file	9 "/rustc/07dca489ac2d933c78d3c5158e3f43beefeb02ce/library/core/src/ptr" "mod.rs"
	.loc	9 507 0 is_stmt 1
	.cfi_startproc
	sub	sp, sp, #16
	.cfi_def_cfa_offset 16
	str	x0, [sp, #8]
Ltmp26:
	.loc	9 507 1 prologue_end epilogue_begin
	add	sp, sp, #16
	.cfi_def_cfa_offset 0
	ret
Ltmp27:
Lfunc_end7:
	.cfi_endproc

	.p2align	2
__ZN54_$LT$$LP$$RP$$u20$as$u20$std..process..Termination$GT$6report17hfcdc01c3d1a6550eE:
Lfunc_begin8:
	.loc	4 2331 0
	.cfi_startproc
	sub	sp, sp, #16
	.cfi_def_cfa_offset 16
	mov	w0, #0
Ltmp29:
	.loc	4 2333 6 prologue_end epilogue_begin
	add	sp, sp, #16
	.cfi_def_cfa_offset 0
	ret
Ltmp30:
Lfunc_end8:
	.cfi_endproc

	.p2align	2
__ZN23a04_rust_emit_add_value4main17hdf6cb9b64b8140f0E:
Lfunc_begin9:
	.file	10 "/Users/gy-gyoung/my_project/Assembly_Lang/Arm64_Assembly_Language/01_Assembly_ARM_tutorial/002_HelloSilicon/a04_rust_emit_add_value" "src/main.rs"
	.loc	10 1 0
	.cfi_startproc
	sub	sp, sp, #144
	.cfi_def_cfa_offset 144
	stp	x29, x30, [sp, #128]
	add	x29, sp, #128
	.cfi_def_cfa w29, 16
	.cfi_offset w30, -8
	.cfi_offset w29, -16
	.cfi_remember_state
	mov	w8, #10
Ltmp31:
	.loc	10 2 9 prologue_end
	str	w8, [sp, #20]
	mov	w9, #20
Ltmp32:
	.loc	10 3 9
	str	w9, [sp, #24]
	.loc	10 4 15
	adds	w8, w8, #20
	str	w8, [sp, #16]
	cset	w8, vs
	tbnz	w8, #0, LBB9_2
	b	LBB9_1
LBB9_1:
	.loc	10 0 15 is_stmt 0
	ldr	w8, [sp, #16]
	add	x9, sp, #28
	.loc	10 4 15
	str	w8, [sp, #28]
	mov	x8, x9
	stur	x8, [x29, #-16]
	adrp	x8, __ZN4core3fmt3num3imp52_$LT$impl$u20$core..fmt..Display$u20$for$u20$i32$GT$3fmt17h2948cf77004f3d8aE@GOTPAGE
	ldr	x8, [x8, __ZN4core3fmt3num3imp52_$LT$impl$u20$core..fmt..Display$u20$for$u20$i32$GT$3fmt17h2948cf77004f3d8aE@GOTPAGEOFF]
Ltmp33:
	.file	11 "/rustc/07dca489ac2d933c78d3c5158e3f43beefeb02ce/library/core/src/fmt" "rt.rs"
	.loc	11 97 22 is_stmt 1
	mov	x10, x8
	stur	x10, [x29, #-8]
Ltmp34:
	.loc	11 92 18
	stur	x9, [x29, #-32]
	stur	x8, [x29, #-24]
Ltmp35:
	.loc	11 98 6
	ldur	x9, [x29, #-32]
	ldur	x8, [x29, #-24]
	sub	x2, x29, #48
Ltmp36:
	.loc	10 5 5
	stur	x9, [x29, #-48]
	stur	x8, [x29, #-40]
	add	x8, sp, #32
	str	x8, [sp, #8]
	adrp	x0, l___unnamed_5@PAGE
	add	x0, x0, l___unnamed_5@PAGEOFF
	mov	w9, #2
	mov	x1, x9
	mov	w9, #1
	mov	x3, x9
	bl	__ZN4core3fmt9Arguments6new_v117hb52eeb323a84f314E
	ldr	x0, [sp, #8]
	bl	__ZN3std2io5stdio6_print17h2c869062e4130656E
Ltmp37:
	.cfi_def_cfa wsp, 144
	.loc	10 6 2 epilogue_begin
	ldp	x29, x30, [sp, #128]
	add	sp, sp, #144
	.cfi_def_cfa_offset 0
	.cfi_restore w30
	.cfi_restore w29
	ret
LBB9_2:
	.cfi_restore_state
Ltmp38:
	.loc	10 4 15
	adrp	x0, _str.0@PAGE
	add	x0, x0, _str.0@PAGEOFF
	mov	w8, #28
	mov	x1, x8
	adrp	x2, l___unnamed_6@PAGE
	add	x2, x2, l___unnamed_6@PAGEOFF
	bl	__ZN4core9panicking5panic17h57fd475c037a9df3E
Ltmp39:
Lfunc_end9:
	.cfi_endproc

	.globl	_main
	.p2align	2
_main:
Lfunc_begin10:
	.cfi_startproc
	stp	x29, x30, [sp, #-16]!
	mov	x29, sp
	.cfi_def_cfa w29, 16
	.cfi_offset w30, -8
	.cfi_offset w29, -16
	mov	x2, x1
	mov	x8, x0
	sxtw	x1, w8
	adrp	x0, __ZN23a04_rust_emit_add_value4main17hdf6cb9b64b8140f0E@PAGE
	add	x0, x0, __ZN23a04_rust_emit_add_value4main17hdf6cb9b64b8140f0E@PAGEOFF
	mov	w3, #0
	bl	__ZN3std2rt10lang_start17hf8e96f63ff786642E
	ldp	x29, x30, [sp], #16
	ret
Lfunc_end10:
	.cfi_endproc

	.section	__DATA,__const
	.p2align	3, 0x0
l___unnamed_1:
	.quad	__ZN4core3ptr85drop_in_place$LT$std..rt..lang_start$LT$$LP$$RP$$GT$..$u7b$$u7b$closure$u7d$$u7d$$GT$17hee06bb4683773353E
	.asciz	"\b\000\000\000\000\000\000\000\b\000\000\000\000\000\000"
	.quad	__ZN4core3ops8function6FnOnce40call_once$u7b$$u7b$vtable.shim$u7d$$u7d$17h243bf9de02b3ff40E
	.quad	__ZN3std2rt10lang_start28_$u7b$$u7b$closure$u7d$$u7d$17h46345672ed369c42E
	.quad	__ZN3std2rt10lang_start28_$u7b$$u7b$closure$u7d$$u7d$17h46345672ed369c42E

	.section	__TEXT,__const
l___unnamed_7:
	.ascii	"invalid args"

	.section	__DATA,__const
	.p2align	3, 0x0
l___unnamed_2:
	.quad	l___unnamed_7
	.asciz	"\f\000\000\000\000\000\000"

	.section	__TEXT,__const
	.p2align	3, 0x0
l___unnamed_3:
	.byte	0

l___unnamed_8:
	.ascii	"/rustc/07dca489ac2d933c78d3c5158e3f43beefeb02ce/library/core/src/fmt/mod.rs"

	.section	__DATA,__const
	.p2align	3, 0x0
l___unnamed_4:
	.quad	l___unnamed_8
	.asciz	"K\000\000\000\000\000\000\000M\001\000\000\r\000\000"

	.section	__TEXT,__const
l___unnamed_9:
	.ascii	"src/main.rs"

	.section	__DATA,__const
	.p2align	3, 0x0
l___unnamed_6:
	.quad	l___unnamed_9
	.asciz	"\013\000\000\000\000\000\000\000\004\000\000\000\017\000\000"

	.section	__TEXT,__const
	.p2align	4, 0x0
_str.0:
	.ascii	"attempt to add with overflow"

l___unnamed_10:
	.ascii	"sum : "

l___unnamed_11:
	.byte	10

	.section	__DATA,__const
	.p2align	3, 0x0
l___unnamed_5:
	.quad	l___unnamed_10
	.asciz	"\006\000\000\000\000\000\000"
	.quad	l___unnamed_11
	.asciz	"\001\000\000\000\000\000\000"

	.section	__DATA,__const
Lsec_end0:
	.section	__TEXT,__text,regular,pure_instructions
Lsec_end1: